; Function Attrs: nounwind sspstrong uwtable
define internal i64 @random_bytes(i64 noundef %0, i64 noundef %1) #0 {
  %3 = tail call fastcc ptr @try_get_rnd(i64 noundef %0)
  %4 = inttoptr i64 %0 to ptr
  %5 = getelementptr inbounds nuw i8, ptr %4, i64 16
  %6 = load ptr, ptr %5, align 8, !tbaa !31
  %7 = getelementptr inbounds nuw i8, ptr %6, i64 56
  %8 = load ptr, ptr %7, align 8, !tbaa !35
  %9 = tail call i64 @rb_to_int(i64 noundef %1) #23
  %10 = and i64 %9, 1
  %.not.i = icmp eq i64 %10, 0
  br i1 %.not.i, label %13, label %11

11:                                               ; preds = %2
  %12 = ashr i64 %9, 1
  br label %rb_num2long_inline.exit

13:                                               ; preds = %2
  %14 = tail call i64 @rb_num2long(i64 noundef %9) #23
  br label %rb_num2long_inline.exit

rb_num2long_inline.exit:                          ; preds = %11, %13
  %.0.i = phi i64 [ %12, %11 ], [ %14, %13 ]
  %15 = tail call i64 @rb_str_new(ptr noundef null, i64 noundef %.0.i) #23, !callees !57
  %16 = inttoptr i64 %15 to ptr
  %17 = load i64, ptr %16, align 8, !tbaa !48, !noalias !77
  %18 = and i64 %17, 8192
  %.not.i.i.i = icmp eq i64 %18, 0
  %19 = getelementptr inbounds nuw i8, ptr %16, i64 24
  br i1 %.not.i.i.i, label %rand_bytes.exit, label %20

20:                                               ; preds = %rb_num2long_inline.exit
  %.sroa.2.0.copyload.i.i = load ptr, ptr %19, align 8
  br label %rand_bytes.exit

rand_bytes.exit:                                  ; preds = %rb_num2long_inline.exit, %20
  %.sroa.2.0.i.i = phi ptr [ %.sroa.2.0.copyload.i.i, %20 ], [ %19, %rb_num2long_inline.exit ]
  %21 = getelementptr inbounds nuw i8, ptr %8, i64 40
  %22 = load ptr, ptr %21, align 8, !tbaa !61
  tail call void %22(ptr noundef %3, ptr noundef %.sroa.2.0.i.i, i64 noundef %.0.i) #23
  ret i64 %15
}